; Function Attrs: nounwind uwtable
define ptr @l_List_mapTR_loop___at_Lean_Elab_Tactic_Conv_congr___spec__2(ptr noundef %0, ptr noundef %1) local_unnamed_addr #1 {
  br label %3

3:                                                ; preds = %.backedge, %2
  %.029 = phi ptr [ %1, %2 ], [ %.029.be, %.backedge ]
  %.0 = phi ptr [ %0, %2 ], [ %20, %.backedge ]
  %4 = ptrtoint ptr %.0 to i64
  %5 = and i64 %4, 1
  %.not.i32 = icmp eq i64 %5, 0
  br i1 %.not.i32, label %9, label %6

6:                                                ; preds = %3
  %7 = lshr i64 %4, 1
  %8 = trunc i64 %7 to i32
  br label %lean_obj_tag.exit

9:                                                ; preds = %3
  %10 = getelementptr i8, ptr %.0, i64 4
  %.val.i = load i32, ptr %10, align 4
  %11 = lshr i32 %.val.i, 24
  br label %lean_obj_tag.exit

lean_obj_tag.exit:                                ; preds = %6, %9
  %.0.i = phi i32 [ %8, %6 ], [ %11, %9 ]
  %12 = icmp eq i32 %.0.i, 0
  br i1 %12, label %13, label %15

13:                                               ; preds = %lean_obj_tag.exit
  %14 = tail call ptr @l_List_reverse___rarg(ptr noundef %.029) #4
  ret ptr %14

15:                                               ; preds = %lean_obj_tag.exit
  %.0.val = load i32, ptr %.0, align 4, !tbaa !6
  %16 = icmp eq i32 %.0.val, 1
  %17 = getelementptr inbounds nuw i8, ptr %.0, i64 8
  %18 = load ptr, ptr %17, align 8, !tbaa !11
  %19 = getelementptr inbounds nuw i8, ptr %.0, i64 16
  %20 = load ptr, ptr %19, align 8, !tbaa !11
  br i1 %16, label %21, label %27

21:                                               ; preds = %15
  tail call void @lean_inc_heartbeat() #4
  %22 = tail call noalias ptr @mi_malloc_small(i64 noundef 16) #4
  %23 = icmp eq ptr %22, null
  br i1 %23, label %24, label %lean_alloc_ctor.exit

24:                                               ; preds = %21
  tail call void @lean_internal_panic_out_of_memory() #5
  unreachable

lean_alloc_ctor.exit:                             ; preds = %21
  %25 = getelementptr inbounds nuw i8, ptr %22, i64 4
  store i32 1, ptr %22, align 4, !tbaa !6
  store i32 16842768, ptr %25, align 4
  %26 = getelementptr inbounds nuw i8, ptr %22, i64 8
  store ptr %18, ptr %26, align 8, !tbaa !11
  store ptr %.029, ptr %19, align 8, !tbaa !11
  store ptr %22, ptr %17, align 8, !tbaa !11
  br label %.backedge

27:                                               ; preds = %15
  %28 = ptrtoint ptr %20 to i64
  %29 = and i64 %28, 1
  %.not = icmp eq i64 %29, 0
  br i1 %.not, label %30, label %lean_inc.exit31

30:                                               ; preds = %27
  %.val.i33 = load i32, ptr %20, align 4, !tbaa !6
  %31 = icmp sgt i32 %.val.i33, 0
  br i1 %31, label %32, label %34, !prof !5

32:                                               ; preds = %30
  %33 = add nuw i32 %.val.i33, 1
  store i32 %33, ptr %20, align 4, !tbaa !6
  br label %lean_inc.exit31

34:                                               ; preds = %30
  %.not.i34 = icmp eq i32 %.val.i33, 0
  br i1 %.not.i34, label %lean_inc.exit31, label %35

35:                                               ; preds = %34
  tail call void @lean_inc_ref_cold(ptr noundef nonnull %20) #4
  br label %lean_inc.exit31

lean_inc.exit31:                                  ; preds = %35, %34, %32, %27
  %36 = ptrtoint ptr %18 to i64
  %37 = and i64 %36, 1
  %.not40 = icmp eq i64 %37, 0
  br i1 %.not40, label %38, label %lean_inc.exit

38:                                               ; preds = %lean_inc.exit31
  %.val.i35 = load i32, ptr %18, align 4, !tbaa !6
  %39 = icmp sgt i32 %.val.i35, 0
  br i1 %39, label %40, label %42, !prof !5

40:                                               ; preds = %38
  %41 = add nuw i32 %.val.i35, 1
  store i32 %41, ptr %18, align 4, !tbaa !6
  br label %lean_inc.exit

42:                                               ; preds = %38
  %.not.i36 = icmp eq i32 %.val.i35, 0
  br i1 %.not.i36, label %lean_inc.exit, label %43

43:                                               ; preds = %42
  tail call void @lean_inc_ref_cold(ptr noundef nonnull %18) #4
  br label %lean_inc.exit

lean_inc.exit:                                    ; preds = %43, %42, %40, %lean_inc.exit31
  br i1 %.not.i32, label %44, label %lean_dec.exit

44:                                               ; preds = %lean_inc.exit
  %45 = load i32, ptr %.0, align 4, !tbaa !6
  %46 = icmp sgt i32 %45, 1
  br i1 %46, label %47, label %49, !prof !5

47:                                               ; preds = %44
  %48 = add nsw i32 %45, -1
  store i32 %48, ptr %.0, align 4, !tbaa !6
  br label %lean_dec.exit

49:                                               ; preds = %44
  %.not.i = icmp eq i32 %45, 0
  br i1 %.not.i, label %lean_dec.exit, label %50

50:                                               ; preds = %49
  tail call void @lean_dec_ref_cold(ptr noundef nonnull %.0) #4
  br label %lean_dec.exit

lean_dec.exit:                                    ; preds = %50, %49, %47, %lean_inc.exit
  tail call void @lean_inc_heartbeat() #4
  %51 = tail call noalias ptr @mi_malloc_small(i64 noundef 16) #4
  %52 = icmp eq ptr %51, null
  br i1 %52, label %53, label %lean_alloc_ctor.exit38

53:                                               ; preds = %lean_dec.exit
  tail call void @lean_internal_panic_out_of_memory() #5
  unreachable

lean_alloc_ctor.exit38:                           ; preds = %lean_dec.exit
  %54 = getelementptr inbounds nuw i8, ptr %51, i64 4
  store i32 1, ptr %51, align 4, !tbaa !6
  store i32 16842768, ptr %54, align 4
  %55 = getelementptr inbounds nuw i8, ptr %51, i64 8
  store ptr %18, ptr %55, align 8, !tbaa !11
  tail call void @lean_inc_heartbeat() #4
  %56 = tail call noalias ptr @mi_malloc_small(i64 noundef 24) #4
  %57 = icmp eq ptr %56, null
  br i1 %57, label %58, label %lean_alloc_ctor.exit39

58:                                               ; preds = %lean_alloc_ctor.exit38
  tail call void @lean_internal_panic_out_of_memory() #5
  unreachable

lean_alloc_ctor.exit39:                           ; preds = %lean_alloc_ctor.exit38
  %59 = getelementptr inbounds nuw i8, ptr %56, i64 4
  store i32 1, ptr %56, align 4, !tbaa !6
  store i32 16908312, ptr %59, align 4
  %60 = getelementptr inbounds nuw i8, ptr %56, i64 8
  store ptr %51, ptr %60, align 8, !tbaa !11
  %61 = getelementptr inbounds nuw i8, ptr %56, i64 16
  store ptr %.029, ptr %61, align 8, !tbaa !11
  br label %.backedge

.backedge:                                        ; preds = %lean_alloc_ctor.exit39, %lean_alloc_ctor.exit
  %.029.be = phi ptr [ %.0, %lean_alloc_ctor.exit ], [ %56, %lean_alloc_ctor.exit39 ]
  br label %3
}